                                      1 ;--------------------------------------------------------
                                      2 ; File Created by SDCC : free open source ANSI-C Compiler
                                      3 ; Version 4.2.0 #13081 (Linux)
                                      4 ;--------------------------------------------------------
                                      5 	.module pibbp
                                      6 	.optsdcc -mz80
                                      7 	
                                      8 ;--------------------------------------------------------
                                      9 ; Public variables in this module
                                     10 ;--------------------------------------------------------
                                     11 	.globl _main
                                     12 	.globl _readbuttons
                                     13 	.globl _setleds
                                     14 	.globl _lcd_begin
                                     15 	.globl _putchar_lcd
                                     16 	.globl _putstr_lcd
                                     17 	.globl _putstr
                                     18 	.globl _putchar
                                     19 ;--------------------------------------------------------
                                     20 ; special function registers
                                     21 ;--------------------------------------------------------
                                     22 ;--------------------------------------------------------
                                     23 ; ram data
                                     24 ;--------------------------------------------------------
                                     25 	.area _DATA
                                     26 ;--------------------------------------------------------
                                     27 ; ram data
                                     28 ;--------------------------------------------------------
                                     29 	.area _INITIALIZED
                                     30 ;--------------------------------------------------------
                                     31 ; absolute external ram data
                                     32 ;--------------------------------------------------------
                                     33 	.area _DABS (ABS)
                                     34 ;--------------------------------------------------------
                                     35 ; global & static initialisations
                                     36 ;--------------------------------------------------------
                                     37 	.area _HOME
                                     38 	.area _GSINIT
                                     39 	.area _GSFINAL
                                     40 	.area _GSINIT
                                     41 ;--------------------------------------------------------
                                     42 ; Home
                                     43 ;--------------------------------------------------------
                                     44 	.area _HOME
                                     45 	.area _HOME
                                     46 ;--------------------------------------------------------
                                     47 ; code
                                     48 ;--------------------------------------------------------
                                     49 	.area _CODE
                                     50 ;pibbp.c:15: void main (void){
                                     51 ;	---------------------------------
                                     52 ; Function main
                                     53 ; ---------------------------------
      000000                         54 _main::
      000000 CDr00r00         [17]   55 	call	___sdcc_enter_ix
      000003 21 F6 FF         [10]   56 	ld	hl, #-10
      000006 39               [11]   57 	add	hl, sp
      000007 F9               [ 6]   58 	ld	sp, hl
                                     59 ;pibbp.c:17: setleds(0x55);
      000008 3E 55            [ 7]   60 	ld	a, #0x55
      00000A CDr00r00         [17]   61 	call	_setleds
                                     62 ;pibbp.c:18: lcd_begin();
      00000D CDr00r00         [17]   63 	call	_lcd_begin
                                     64 ;pibbp.c:20: putstr ("PI CALC BBP\r\n");
      000010 21r99r02         [10]   65 	ld	hl, #___str_0
      000013 CDr00r00         [17]   66 	call	_putstr
                                     67 ;pibbp.c:21: putstr_lcd("PI CALC BBP     ");
      000016 21rA7r02         [10]   68 	ld	hl, #___str_1
      000019 CDr00r00         [17]   69 	call	_putstr_lcd
                                     70 ;pibbp.c:27: pi = 0;
      00001C 11 00 00         [10]   71 	ld	de, #0x0000
      00001F 01 00 00         [10]   72 	ld	bc, #0x0000
                                     73 ;pibbp.c:30: for (k = 0; k < 10; k++){
      000022 AF               [ 4]   74 	xor	a, a
      000023 DD 77 FE         [19]   75 	ld	-2 (ix), a
      000026 DD 77 FF         [19]   76 	ld	-1 (ix), a
      000029                         77 00108$:
                                     78 ;pibbp.c:32: oitok = 8*k;
      000029 DD 6E FE         [19]   79 	ld	l, -2 (ix)
      00002C DD 66 FF         [19]   80 	ld	h, -1 (ix)
      00002F 29               [11]   81 	add	hl, hl
      000030 29               [11]   82 	add	hl, hl
      000031 29               [11]   83 	add	hl, hl
      000032 C5               [11]   84 	push	bc
      000033 D5               [11]   85 	push	de
      000034 CDr00r00         [17]   86 	call	___sint2fs
      000037 D5               [11]   87 	push	de
      000038 FD E1            [14]   88 	pop	iy
      00003A D1               [10]   89 	pop	de
      00003B C1               [10]   90 	pop	bc
      00003C 33               [ 6]   91 	inc	sp
      00003D 33               [ 6]   92 	inc	sp
      00003E FD E5            [15]   93 	push	iy
      000040 DD 75 F8         [19]   94 	ld	-8 (ix), l
      000043 DD 74 F9         [19]   95 	ld	-7 (ix), h
                                     96 ;pibbp.c:33: sum = (4/(oitok+1) - 2/(oitok+4) - 1/(oitok+5) - 1/(oitok+6));
      000046 C5               [11]   97 	push	bc
      000047 D5               [11]   98 	push	de
      000048 21 80 3F         [10]   99 	ld	hl, #0x3f80
      00004B E5               [11]  100 	push	hl
      00004C 21 00 00         [10]  101 	ld	hl, #0x0000
      00004F E5               [11]  102 	push	hl
      000050 DD 5E F6         [19]  103 	ld	e, -10 (ix)
      000053 DD 56 F7         [19]  104 	ld	d, -9 (ix)
      000056 DD 6E F8         [19]  105 	ld	l, -8 (ix)
                                    106 ;	spillPairReg hl
                                    107 ;	spillPairReg hl
      000059 DD 66 F9         [19]  108 	ld	h, -7 (ix)
                                    109 ;	spillPairReg hl
                                    110 ;	spillPairReg hl
      00005C CDr00r00         [17]  111 	call	___fsadd
      00005F D5               [11]  112 	push	de
      000060 FD E1            [14]  113 	pop	iy
      000062 E5               [11]  114 	push	hl
      000063 FD E5            [15]  115 	push	iy
      000065 11 00 00         [10]  116 	ld	de, #0x0000
      000068 21 80 40         [10]  117 	ld	hl, #0x4080
      00006B CDr00r00         [17]  118 	call	___fsdiv
      00006E DD 73 FA         [19]  119 	ld	-6 (ix), e
      000071 DD 72 FB         [19]  120 	ld	-5 (ix), d
      000074 DD 75 FC         [19]  121 	ld	-4 (ix), l
      000077 DD 74 FD         [19]  122 	ld	-3 (ix), h
      00007A 21 80 40         [10]  123 	ld	hl, #0x4080
      00007D E5               [11]  124 	push	hl
      00007E 21 00 00         [10]  125 	ld	hl, #0x0000
      000081 E5               [11]  126 	push	hl
      000082 DD 5E F6         [19]  127 	ld	e, -10 (ix)
      000085 DD 56 F7         [19]  128 	ld	d, -9 (ix)
      000088 DD 6E F8         [19]  129 	ld	l, -8 (ix)
                                    130 ;	spillPairReg hl
                                    131 ;	spillPairReg hl
      00008B DD 66 F9         [19]  132 	ld	h, -7 (ix)
                                    133 ;	spillPairReg hl
                                    134 ;	spillPairReg hl
      00008E CDr00r00         [17]  135 	call	___fsadd
      000091 D5               [11]  136 	push	de
      000092 FD E1            [14]  137 	pop	iy
      000094 E5               [11]  138 	push	hl
      000095 FD E5            [15]  139 	push	iy
      000097 11 00 00         [10]  140 	ld	de, #0x0000
      00009A 21 00 40         [10]  141 	ld	hl, #0x4000
      00009D CDr00r00         [17]  142 	call	___fsdiv
      0000A0 D5               [11]  143 	push	de
      0000A1 FD E1            [14]  144 	pop	iy
      0000A3 E5               [11]  145 	push	hl
      0000A4 FD E5            [15]  146 	push	iy
      0000A6 DD 5E FA         [19]  147 	ld	e, -6 (ix)
      0000A9 DD 56 FB         [19]  148 	ld	d, -5 (ix)
      0000AC DD 6E FC         [19]  149 	ld	l, -4 (ix)
                                    150 ;	spillPairReg hl
                                    151 ;	spillPairReg hl
      0000AF DD 66 FD         [19]  152 	ld	h, -3 (ix)
                                    153 ;	spillPairReg hl
                                    154 ;	spillPairReg hl
      0000B2 CDr00r00         [17]  155 	call	___fssub
      0000B5 DD 73 FA         [19]  156 	ld	-6 (ix), e
      0000B8 DD 72 FB         [19]  157 	ld	-5 (ix), d
      0000BB DD 75 FC         [19]  158 	ld	-4 (ix), l
      0000BE DD 74 FD         [19]  159 	ld	-3 (ix), h
      0000C1 21 A0 40         [10]  160 	ld	hl, #0x40a0
      0000C4 E5               [11]  161 	push	hl
      0000C5 21 00 00         [10]  162 	ld	hl, #0x0000
      0000C8 E5               [11]  163 	push	hl
      0000C9 DD 5E F6         [19]  164 	ld	e, -10 (ix)
      0000CC DD 56 F7         [19]  165 	ld	d, -9 (ix)
      0000CF DD 6E F8         [19]  166 	ld	l, -8 (ix)
                                    167 ;	spillPairReg hl
                                    168 ;	spillPairReg hl
      0000D2 DD 66 F9         [19]  169 	ld	h, -7 (ix)
                                    170 ;	spillPairReg hl
                                    171 ;	spillPairReg hl
      0000D5 CDr00r00         [17]  172 	call	___fsadd
      0000D8 D5               [11]  173 	push	de
      0000D9 FD E1            [14]  174 	pop	iy
      0000DB E5               [11]  175 	push	hl
      0000DC FD E5            [15]  176 	push	iy
      0000DE 11 00 00         [10]  177 	ld	de, #0x0000
      0000E1 21 80 3F         [10]  178 	ld	hl, #0x3f80
      0000E4 CDr00r00         [17]  179 	call	___fsdiv
      0000E7 D5               [11]  180 	push	de
      0000E8 FD E1            [14]  181 	pop	iy
      0000EA E5               [11]  182 	push	hl
      0000EB FD E5            [15]  183 	push	iy
      0000ED DD 5E FA         [19]  184 	ld	e, -6 (ix)
      0000F0 DD 56 FB         [19]  185 	ld	d, -5 (ix)
      0000F3 DD 6E FC         [19]  186 	ld	l, -4 (ix)
                                    187 ;	spillPairReg hl
                                    188 ;	spillPairReg hl
      0000F6 DD 66 FD         [19]  189 	ld	h, -3 (ix)
                                    190 ;	spillPairReg hl
                                    191 ;	spillPairReg hl
      0000F9 CDr00r00         [17]  192 	call	___fssub
      0000FC DD 73 FA         [19]  193 	ld	-6 (ix), e
      0000FF DD 72 FB         [19]  194 	ld	-5 (ix), d
      000102 DD 75 FC         [19]  195 	ld	-4 (ix), l
      000105 DD 74 FD         [19]  196 	ld	-3 (ix), h
      000108 21 C0 40         [10]  197 	ld	hl, #0x40c0
      00010B E5               [11]  198 	push	hl
      00010C 21 00 00         [10]  199 	ld	hl, #0x0000
      00010F E5               [11]  200 	push	hl
      000110 DD 5E F6         [19]  201 	ld	e, -10 (ix)
      000113 DD 56 F7         [19]  202 	ld	d, -9 (ix)
      000116 DD 6E F8         [19]  203 	ld	l, -8 (ix)
                                    204 ;	spillPairReg hl
                                    205 ;	spillPairReg hl
      000119 DD 66 F9         [19]  206 	ld	h, -7 (ix)
                                    207 ;	spillPairReg hl
                                    208 ;	spillPairReg hl
      00011C CDr00r00         [17]  209 	call	___fsadd
      00011F D5               [11]  210 	push	de
      000120 FD E1            [14]  211 	pop	iy
      000122 E5               [11]  212 	push	hl
      000123 FD E5            [15]  213 	push	iy
      000125 11 00 00         [10]  214 	ld	de, #0x0000
      000128 21 80 3F         [10]  215 	ld	hl, #0x3f80
      00012B CDr00r00         [17]  216 	call	___fsdiv
      00012E D5               [11]  217 	push	de
      00012F FD E1            [14]  218 	pop	iy
      000131 E5               [11]  219 	push	hl
      000132 FD E5            [15]  220 	push	iy
      000134 DD 5E FA         [19]  221 	ld	e, -6 (ix)
      000137 DD 56 FB         [19]  222 	ld	d, -5 (ix)
      00013A DD 6E FC         [19]  223 	ld	l, -4 (ix)
                                    224 ;	spillPairReg hl
                                    225 ;	spillPairReg hl
      00013D DD 66 FD         [19]  226 	ld	h, -3 (ix)
                                    227 ;	spillPairReg hl
                                    228 ;	spillPairReg hl
      000140 CDr00r00         [17]  229 	call	___fssub
      000143 D5               [11]  230 	push	de
      000144 FD E1            [14]  231 	pop	iy
      000146 D1               [10]  232 	pop	de
      000147 C1               [10]  233 	pop	bc
      000148 FD E5            [15]  234 	push	iy
      00014A E3               [19]  235 	ex	(sp), hl
      00014B DD 75 FA         [19]  236 	ld	-6 (ix), l
      00014E E3               [19]  237 	ex	(sp), hl
      00014F E3               [19]  238 	ex	(sp), hl
      000150 DD 74 FB         [19]  239 	ld	-5 (ix), h
      000153 E3               [19]  240 	ex	(sp), hl
      000154 FD E1            [14]  241 	pop	iy
      000156 DD 75 FC         [19]  242 	ld	-4 (ix), l
      000159 DD 74 FD         [19]  243 	ld	-3 (ix), h
                                    244 ;pibbp.c:34: for (int l = 0; l < k; l++)
      00015C 21 00 00         [10]  245 	ld	hl, #0x0000
      00015F                        246 00106$:
      00015F 7D               [ 4]  247 	ld	a, l
      000160 DD 96 FE         [19]  248 	sub	a, -2 (ix)
      000163 7C               [ 4]  249 	ld	a, h
      000164 DD 9E FF         [19]  250 	sbc	a, -1 (ix)
      000167 E2r6Cr01         [10]  251 	jp	PO, 00162$
      00016A EE 80            [ 7]  252 	xor	a, #0x80
      00016C                        253 00162$:
      00016C F2r9Br01         [10]  254 	jp	P, 00101$
                                    255 ;pibbp.c:35: sum /= 16;
      00016F E5               [11]  256 	push	hl
      000170 C5               [11]  257 	push	bc
      000171 D5               [11]  258 	push	de
      000172 21 80 41         [10]  259 	ld	hl, #0x4180
      000175 E5               [11]  260 	push	hl
      000176 21 00 00         [10]  261 	ld	hl, #0x0000
      000179 E5               [11]  262 	push	hl
      00017A DD 5E FA         [19]  263 	ld	e, -6 (ix)
      00017D DD 56 FB         [19]  264 	ld	d, -5 (ix)
      000180 DD 6E FC         [19]  265 	ld	l, -4 (ix)
                                    266 ;	spillPairReg hl
                                    267 ;	spillPairReg hl
      000183 DD 66 FD         [19]  268 	ld	h, -3 (ix)
                                    269 ;	spillPairReg hl
                                    270 ;	spillPairReg hl
      000186 CDr00r00         [17]  271 	call	___fsdiv
      000189 DD 73 FA         [19]  272 	ld	-6 (ix), e
      00018C DD 72 FB         [19]  273 	ld	-5 (ix), d
      00018F DD 75 FC         [19]  274 	ld	-4 (ix), l
      000192 DD 74 FD         [19]  275 	ld	-3 (ix), h
      000195 D1               [10]  276 	pop	de
      000196 C1               [10]  277 	pop	bc
      000197 E1               [10]  278 	pop	hl
                                    279 ;pibbp.c:34: for (int l = 0; l < k; l++)
      000198 23               [ 6]  280 	inc	hl
      000199 18 C4            [12]  281 	jr	00106$
      00019B                        282 00101$:
                                    283 ;pibbp.c:36: pi += sum;
      00019B DD 6E FC         [19]  284 	ld	l, -4 (ix)
                                    285 ;	spillPairReg hl
                                    286 ;	spillPairReg hl
      00019E DD 66 FD         [19]  287 	ld	h, -3 (ix)
                                    288 ;	spillPairReg hl
                                    289 ;	spillPairReg hl
      0001A1 E5               [11]  290 	push	hl
      0001A2 DD 6E FA         [19]  291 	ld	l, -6 (ix)
                                    292 ;	spillPairReg hl
                                    293 ;	spillPairReg hl
      0001A5 DD 66 FB         [19]  294 	ld	h, -5 (ix)
                                    295 ;	spillPairReg hl
                                    296 ;	spillPairReg hl
      0001A8 E5               [11]  297 	push	hl
      0001A9 69               [ 4]  298 	ld	l, c
                                    299 ;	spillPairReg hl
                                    300 ;	spillPairReg hl
      0001AA 60               [ 4]  301 	ld	h, b
                                    302 ;	spillPairReg hl
                                    303 ;	spillPairReg hl
      0001AB CDr00r00         [17]  304 	call	___fsadd
      0001AE 4D               [ 4]  305 	ld	c, l
      0001AF 44               [ 4]  306 	ld	b, h
                                    307 ;pibbp.c:30: for (k = 0; k < 10; k++){
      0001B0 DD 34 FE         [23]  308 	inc	-2 (ix)
      0001B3 20 03            [12]  309 	jr	NZ, 00163$
      0001B5 DD 34 FF         [23]  310 	inc	-1 (ix)
      0001B8                        311 00163$:
      0001B8 DD 7E FE         [19]  312 	ld	a, -2 (ix)
      0001BB D6 0A            [ 7]  313 	sub	a, #0x0a
      0001BD DD 7E FF         [19]  314 	ld	a, -1 (ix)
      0001C0 17               [ 4]  315 	rla
      0001C1 3F               [ 4]  316 	ccf
      0001C2 1F               [ 4]  317 	rra
      0001C3 DE 80            [ 7]  318 	sbc	a, #0x80
      0001C5 DAr29r00         [10]  319 	jp	C, 00108$
                                    320 ;pibbp.c:39: putstr("PI:3.");
      0001C8 C5               [11]  321 	push	bc
      0001C9 D5               [11]  322 	push	de
      0001CA 21rB8r02         [10]  323 	ld	hl, #___str_2
      0001CD CDr00r00         [17]  324 	call	_putstr
      0001D0 21rB8r02         [10]  325 	ld	hl, #___str_2
      0001D3 CDr00r00         [17]  326 	call	_putstr_lcd
      0001D6 D1               [10]  327 	pop	de
      0001D7 C1               [10]  328 	pop	bc
                                    329 ;pibbp.c:42: pi -= (int)pi;
      0001D8 C5               [11]  330 	push	bc
      0001D9 D5               [11]  331 	push	de
      0001DA 69               [ 4]  332 	ld	l, c
                                    333 ;	spillPairReg hl
                                    334 ;	spillPairReg hl
      0001DB 60               [ 4]  335 	ld	h, b
                                    336 ;	spillPairReg hl
                                    337 ;	spillPairReg hl
      0001DC CDr00r00         [17]  338 	call	___fs2sint
      0001DF EB               [ 4]  339 	ex	de, hl
      0001E0 CDr00r00         [17]  340 	call	___sint2fs
      0001E3 D5               [11]  341 	push	de
      0001E4 FD E1            [14]  342 	pop	iy
      0001E6 D1               [10]  343 	pop	de
      0001E7 C1               [10]  344 	pop	bc
      0001E8 E5               [11]  345 	push	hl
      0001E9 FD E5            [15]  346 	push	iy
      0001EB 69               [ 4]  347 	ld	l, c
                                    348 ;	spillPairReg hl
                                    349 ;	spillPairReg hl
      0001EC 60               [ 4]  350 	ld	h, b
                                    351 ;	spillPairReg hl
                                    352 ;	spillPairReg hl
      0001ED CDr00r00         [17]  353 	call	___fssub
                                    354 ;pibbp.c:43: pi *= 10;
      0001F0 E5               [11]  355 	push	hl
      0001F1 D5               [11]  356 	push	de
      0001F2 11 00 00         [10]  357 	ld	de, #0x0000
      0001F5 21 20 41         [10]  358 	ld	hl, #0x4120
      0001F8 CDr00r00         [17]  359 	call	___fsmul
      0001FB DD 73 FA         [19]  360 	ld	-6 (ix), e
      0001FE DD 72 FB         [19]  361 	ld	-5 (ix), d
      000201 DD 75 FC         [19]  362 	ld	-4 (ix), l
      000204 DD 74 FD         [19]  363 	ld	-3 (ix), h
                                    364 ;pibbp.c:45: for (int i = 0; i < 7; i++){
      000207 AF               [ 4]  365 	xor	a, a
      000208 DD 77 FE         [19]  366 	ld	-2 (ix), a
      00020B DD 77 FF         [19]  367 	ld	-1 (ix), a
      00020E                        368 00111$:
      00020E DD 7E FE         [19]  369 	ld	a, -2 (ix)
      000211 D6 07            [ 7]  370 	sub	a, #0x07
      000213 DD 7E FF         [19]  371 	ld	a, -1 (ix)
      000216 17               [ 4]  372 	rla
      000217 3F               [ 4]  373 	ccf
      000218 1F               [ 4]  374 	rra
      000219 DE 80            [ 7]  375 	sbc	a, #0x80
      00021B 30 67            [12]  376 	jr	NC, 00103$
                                    377 ;pibbp.c:42: pi -= (int)pi;
      00021D DD 5E FA         [19]  378 	ld	e, -6 (ix)
      000220 DD 56 FB         [19]  379 	ld	d, -5 (ix)
      000223 DD 6E FC         [19]  380 	ld	l, -4 (ix)
                                    381 ;	spillPairReg hl
                                    382 ;	spillPairReg hl
      000226 DD 66 FD         [19]  383 	ld	h, -3 (ix)
                                    384 ;	spillPairReg hl
                                    385 ;	spillPairReg hl
      000229 CDr00r00         [17]  386 	call	___fs2sint
                                    387 ;pibbp.c:46: putchar ('0'+(int)pi);
      00022C 21 30 00         [10]  388 	ld	hl, #0x0030
      00022F 19               [11]  389 	add	hl, de
      000230 D5               [11]  390 	push	de
      000231 CDr00r00         [17]  391 	call	_putchar
      000234 DD 5E FA         [19]  392 	ld	e, -6 (ix)
      000237 DD 56 FB         [19]  393 	ld	d, -5 (ix)
      00023A DD 6E FC         [19]  394 	ld	l, -4 (ix)
                                    395 ;	spillPairReg hl
                                    396 ;	spillPairReg hl
      00023D DD 66 FD         [19]  397 	ld	h, -3 (ix)
                                    398 ;	spillPairReg hl
                                    399 ;	spillPairReg hl
      000240 CDr00r00         [17]  400 	call	___fs2sint
      000243 7B               [ 4]  401 	ld	a, e
      000244 D1               [10]  402 	pop	de
      000245 C6 30            [ 7]  403 	add	a, #0x30
      000247 4F               [ 4]  404 	ld	c, a
      000248 D5               [11]  405 	push	de
      000249 79               [ 4]  406 	ld	a, c
      00024A CDr00r00         [17]  407 	call	_putchar_lcd
      00024D D1               [10]  408 	pop	de
                                    409 ;pibbp.c:48: pi -= (int)pi;
      00024E EB               [ 4]  410 	ex	de, hl
      00024F CDr00r00         [17]  411 	call	___sint2fs
      000252 E5               [11]  412 	push	hl
      000253 D5               [11]  413 	push	de
      000254 DD 5E FA         [19]  414 	ld	e, -6 (ix)
      000257 DD 56 FB         [19]  415 	ld	d, -5 (ix)
      00025A DD 6E FC         [19]  416 	ld	l, -4 (ix)
                                    417 ;	spillPairReg hl
                                    418 ;	spillPairReg hl
      00025D DD 66 FD         [19]  419 	ld	h, -3 (ix)
                                    420 ;	spillPairReg hl
                                    421 ;	spillPairReg hl
      000260 CDr00r00         [17]  422 	call	___fssub
                                    423 ;pibbp.c:49: pi *= 10;
      000263 E5               [11]  424 	push	hl
      000264 D5               [11]  425 	push	de
      000265 11 00 00         [10]  426 	ld	de, #0x0000
      000268 21 20 41         [10]  427 	ld	hl, #0x4120
      00026B CDr00r00         [17]  428 	call	___fsmul
      00026E DD 73 FA         [19]  429 	ld	-6 (ix), e
      000271 DD 72 FB         [19]  430 	ld	-5 (ix), d
      000274 DD 75 FC         [19]  431 	ld	-4 (ix), l
      000277 DD 74 FD         [19]  432 	ld	-3 (ix), h
                                    433 ;pibbp.c:45: for (int i = 0; i < 7; i++){
      00027A DD 34 FE         [23]  434 	inc	-2 (ix)
      00027D 20 8F            [12]  435 	jr	NZ, 00111$
      00027F DD 34 FF         [23]  436 	inc	-1 (ix)
      000282 18 8A            [12]  437 	jr	00111$
      000284                        438 00103$:
                                    439 ;pibbp.c:52: putstr("\r\n");
      000284 21rBEr02         [10]  440 	ld	hl, #___str_3
      000287 CDr00r00         [17]  441 	call	_putstr
                                    442 ;pibbp.c:54: char *p = 0xfffe;
      00028A                        443 00113$:
                                    444 ;pibbp.c:57: setleds(*p & readbuttons());
      00028A 21 FE FF         [10]  445 	ld	hl, #0xfffe
      00028D 4E               [ 7]  446 	ld	c, (hl)
      00028E C5               [11]  447 	push	bc
      00028F CDr00r00         [17]  448 	call	_readbuttons
      000292 C1               [10]  449 	pop	bc
      000293 A1               [ 4]  450 	and	a, c
      000294 CDr00r00         [17]  451 	call	_setleds
                                    452 ;pibbp.c:59: }
      000297 18 F1            [12]  453 	jr	00113$
      000299                        454 ___str_0:
      000299 50 49 20 43 41 4C 43   455 	.ascii "PI CALC BBP"
             20 42 42 50
      0002A4 0D                     456 	.db 0x0d
      0002A5 0A                     457 	.db 0x0a
      0002A6 00                     458 	.db 0x00
      0002A7                        459 ___str_1:
      0002A7 50 49 20 43 41 4C 43   460 	.ascii "PI CALC BBP     "
             20 42 42 50 20 20 20
             20 20
      0002B7 00                     461 	.db 0x00
      0002B8                        462 ___str_2:
      0002B8 50 49 3A 33 2E         463 	.ascii "PI:3."
      0002BD 00                     464 	.db 0x00
      0002BE                        465 ___str_3:
      0002BE 0D                     466 	.db 0x0d
      0002BF 0A                     467 	.db 0x0a
      0002C0 00                     468 	.db 0x00
                                    469 	.area _CODE
                                    470 	.area _INITIALIZER
                                    471 	.area _CABS (ABS)
